target datalayout = "e-m:e-p270:32:32-p271:32:32-p272:64:64-i64:64-i128:128-f80:128-n8:16:32:64-S128"
target triple = "x86_64-pc-linux-gnu"

%struct.quic_conn_id_st = type { i8, [20 x i8] }
%union.bio_addr_st = type { %struct.sockaddr_in6, [84 x i8] }
%struct.sockaddr_in6 = type { i16, i16, i32, %struct.in6_addr, i32 }
%struct.in6_addr = type { %union.anon }
%union.anon = type { [4 x i32] }
%struct.OSSL_TIME = type { i64 }
%struct.quic_channel_st = type { ptr, %struct.anon, %struct.anon.0, ptr, ptr, ptr, ptr, ptr, ptr, ptr, i64, %union.bio_addr_st, ptr, ptr, ptr, %struct.quic_txfc_st, %struct.quic_rxfc_st, [3 x %struct.quic_rxfc_st], %struct.quic_rxfc_st, %struct.quic_rxfc_st, %struct.quic_stream_map_st, %struct.ossl_statm_st, ptr, ptr, ptr, ptr, ptr, ptr, ptr, ptr, [3 x ptr], [3 x ptr], %struct.quic_conn_id_st, %struct.quic_conn_id_st, %struct.quic_conn_id_st, %struct.quic_conn_id_st, %struct.quic_conn_id_st, %struct.quic_conn_id_st, i64, i64, i64, i64, i64, i64, i64, i64, i64, i64, i8, i16, ptr, i64, i64, i64, i64, i64, i64, i64, i64, i64, i64, i64, i64, i64, %struct.quic_terminate_cause_st, %struct.OSSL_TIME, %struct.OSSL_TIME, %struct.OSSL_TIME, %struct.OSSL_TIME, %struct.OSSL_TIME, i64, i64, i64, ptr, ptr, i64, ptr }
%struct.anon = type { ptr, ptr }
%struct.anon.0 = type { ptr, ptr }
%struct.quic_txfc_st = type { ptr, i64, i64, i8 }
%struct.quic_rxfc_st = type { i64, i64, i64, i64, i64, i64, i64, %struct.OSSL_TIME, ptr, ptr, ptr, i8, i8, i8, i8 }
%struct.quic_stream_map_st = type { ptr, %struct.quic_stream_list_node_st, %struct.quic_stream_list_node_st, %struct.quic_stream_list_node_st, i64, i64, i64, i64, i64, ptr, ptr, ptr, ptr, ptr, i32 }
%struct.quic_stream_list_node_st = type { ptr, ptr }
%struct.ossl_statm_st = type { %struct.OSSL_TIME, %struct.OSSL_TIME, %struct.OSSL_TIME, %struct.OSSL_TIME, i8 }
%struct.quic_terminate_cause_st = type { i64, i64, ptr, i64, i8 }
%struct.quic_stream_st = type { %struct.quic_stream_list_node_st, %struct.quic_stream_list_node_st, %struct.quic_stream_list_node_st, ptr, i64, i64, i64, i64, i64, i64, i64, ptr, ptr, %struct.quic_txfc_st, %struct.quic_rxfc_st, i64 }

; Function Attrs: nounwind uwtable
define void @ossl_quic_channel_reject_stream(ptr noundef %0, ptr noundef %1) #0 {
  %3 = alloca ptr, align 8
  %4 = alloca ptr, align 8
  store ptr %0, ptr %3, align 8, !tbaa !3
  store ptr %1, ptr %4, align 8, !tbaa !255
  %5 = load ptr, ptr %3, align 8, !tbaa !3
  %6 = getelementptr inbounds nuw %struct.quic_channel_st, ptr %5, i32 0, i32 20
  %7 = load ptr, ptr %4, align 8, !tbaa !255
  %8 = load ptr, ptr %3, align 8, !tbaa !3
  %9 = getelementptr inbounds nuw %struct.quic_channel_st, ptr %8, i32 0, i32 62
  %10 = load i64, ptr %9, align 8, !tbaa !262
  %11 = call i32 @ossl_quic_stream_map_stop_sending_recv_part(ptr noundef %6, ptr noundef %7, i64 noundef %10)
  %12 = load ptr, ptr %3, align 8, !tbaa !3
  %13 = getelementptr inbounds nuw %struct.quic_channel_st, ptr %12, i32 0, i32 20
  %14 = load ptr, ptr %4, align 8, !tbaa !255
  %15 = load ptr, ptr %3, align 8, !tbaa !3
  %16 = getelementptr inbounds nuw %struct.quic_channel_st, ptr %15, i32 0, i32 62
  %17 = load i64, ptr %16, align 8, !tbaa !262
  %18 = call i32 @ossl_quic_stream_map_reset_stream_send_part(ptr noundef %13, ptr noundef %14, i64 noundef %17)
  %19 = load ptr, ptr %4, align 8, !tbaa !255
  %20 = getelementptr inbounds nuw %struct.quic_stream_st, ptr %19, i32 0, i32 15
  %21 = load i64, ptr %20, align 8
  %22 = and i64 %21, -137438953473
  %23 = or i64 %22, 137438953472
  store i64 %23, ptr %20, align 8
  %24 = load ptr, ptr %3, align 8, !tbaa !3
  %25 = getelementptr inbounds nuw %struct.quic_channel_st, ptr %24, i32 0, i32 20
  %26 = load ptr, ptr %4, align 8, !tbaa !255
  call void @ossl_quic_stream_map_update_state(ptr noundef %25, ptr noundef %26)
  ret void
}

; Function Attrs: nounwind uwtable
define ptr @ossl_quic_channel_new_stream_remote(ptr noundef %0, i64 noundef %1) #0 {
  %3 = alloca ptr, align 8
  %4 = alloca ptr, align 8
  %5 = alloca i64, align 8
  %6 = alloca i64, align 8
  %7 = alloca i32, align 4
  %8 = alloca ptr, align 8
  %9 = alloca i32, align 4
  store ptr %0, ptr %4, align 8, !tbaa !3
  store i64 %1, ptr %5, align 8, !tbaa !47
  call void @llvm.lifetime.start.p0(i64 8, ptr %6) #9
  call void @llvm.lifetime.start.p0(i64 4, ptr %7) #9
  call void @llvm.lifetime.start.p0(i64 8, ptr %8) #9
  %10 = load ptr, ptr %4, align 8, !tbaa !3
  %11 = getelementptr inbounds nuw %struct.quic_channel_st, ptr %10, i32 0, i32 72
  %12 = load i64, ptr %11, align 8
  %13 = lshr i64 %12, 25
  %14 = and i64 %13, 1
  %15 = trunc i64 %14 to i32
  %16 = icmp ne i32 %15, 0
  %17 = select i1 %16, i32 0, i32 1
  %18 = sext i32 %17 to i64
  store i64 %18, ptr %6, align 8, !tbaa !47
  %19 = load i64, ptr %5, align 8, !tbaa !47
  %20 = and i64 %19, 1
  %21 = load i64, ptr %6, align 8, !tbaa !47
  %22 = icmp ne i64 %20, %21
  br i1 %22, label %23, label %24

23:                                               ; preds = %2
  store ptr null, ptr %3, align 8
  store i32 1, ptr %9, align 4
  br label %70

24:                                               ; preds = %2
  %25 = load i64, ptr %5, align 8, !tbaa !47
  %26 = and i64 %25, 2
  %27 = icmp eq i64 %26, 2
  %28 = zext i1 %27 to i32
  store i32 %28, ptr %7, align 4, !tbaa !80
  %29 = load ptr, ptr %4, align 8, !tbaa !3
  %30 = getelementptr inbounds nuw %struct.quic_channel_st, ptr %29, i32 0, i32 20
  %31 = load i64, ptr %5, align 8, !tbaa !47
  %32 = load i64, ptr %5, align 8, !tbaa !47
  %33 = and i64 %32, 3
  %34 = trunc i64 %33 to i32
  %35 = call ptr @ossl_quic_stream_map_alloc(ptr noundef %30, i64 noundef %31, i32 noundef %34)
  store ptr %35, ptr %8, align 8, !tbaa !255
  %36 = load ptr, ptr %8, align 8, !tbaa !255
  %37 = icmp eq ptr %36, null
  br i1 %37, label %38, label %39

38:                                               ; preds = %24
  store ptr null, ptr %3, align 8
  store i32 1, ptr %9, align 4
  br label %70

39:                                               ; preds = %24
  %40 = load ptr, ptr %4, align 8, !tbaa !3
  %41 = load ptr, ptr %8, align 8, !tbaa !255
  %42 = load i32, ptr %7, align 4, !tbaa !80
  %43 = icmp ne i32 %42, 0
  %44 = xor i1 %43, true
  %45 = zext i1 %44 to i32
  %46 = call i32 @ch_init_new_stream(ptr noundef %40, ptr noundef %41, i32 noundef %45, i32 noundef 1)
  %47 = icmp ne i32 %46, 0
  br i1 %47, label %49, label %48

48:                                               ; preds = %39
  br label %66

49:                                               ; preds = %39
  %50 = load ptr, ptr %4, align 8, !tbaa !3
  %51 = getelementptr inbounds nuw %struct.quic_channel_st, ptr %50, i32 0, i32 72
  %52 = load i64, ptr %51, align 8
  %53 = lshr i64 %52, 30
  %54 = and i64 %53, 1
  %55 = trunc i64 %54 to i32
  %56 = icmp ne i32 %55, 0
  br i1 %56, label %57, label %60

57:                                               ; preds = %49
  %58 = load ptr, ptr %4, align 8, !tbaa !3
  %59 = load ptr, ptr %8, align 8, !tbaa !255
  call void @ossl_quic_channel_reject_stream(ptr noundef %58, ptr noundef %59)
  br label %64

60:                                               ; preds = %49
  %61 = load ptr, ptr %4, align 8, !tbaa !3
  %62 = getelementptr inbounds nuw %struct.quic_channel_st, ptr %61, i32 0, i32 20
  %63 = load ptr, ptr %8, align 8, !tbaa !255
  call void @ossl_quic_stream_map_push_accept_queue(ptr noundef %62, ptr noundef %63)
  br label %64

64:                                               ; preds = %60, %57
  %65 = load ptr, ptr %8, align 8, !tbaa !255
  store ptr %65, ptr %3, align 8
  store i32 1, ptr %9, align 4
  br label %70

66:                                               ; preds = %48
  %67 = load ptr, ptr %4, align 8, !tbaa !3
  %68 = getelementptr inbounds nuw %struct.quic_channel_st, ptr %67, i32 0, i32 20
  %69 = load ptr, ptr %8, align 8, !tbaa !255
  call void @ossl_quic_stream_map_release(ptr noundef %68, ptr noundef %69)
  store ptr null, ptr %3, align 8
  store i32 1, ptr %9, align 4
  br label %70

70:                                               ; preds = %66, %64, %38, %23
  call void @llvm.lifetime.end.p0(i64 8, ptr %8) #9
  call void @llvm.lifetime.end.p0(i64 4, ptr %7) #9
  call void @llvm.lifetime.end.p0(i64 8, ptr %6) #9
  %71 = load ptr, ptr %3, align 8
  ret ptr %71
}