; Function Attrs: nounwind uwtable
define ptr @ossl_quic_channel_new_stream_remote(ptr noundef %0, i64 noundef %1) local_unnamed_addr #0 {
  %3 = getelementptr inbounds nuw i8, ptr %0, i64 1568
  %4 = load i64, ptr %3, align 8
  %5 = lshr i64 %4, 25
  %.lobit20 = xor i64 %5, %1
  %6 = and i64 %.lobit20, 1
  %.not.not = icmp eq i64 %6, 0
  br i1 %.not.not, label %31, label %7

7:                                                ; preds = %2
  %8 = getelementptr inbounds nuw i8, ptr %0, i64 848
  %9 = trunc i64 %1 to i32
  %10 = and i32 %9, 3
  %11 = tail call ptr @ossl_quic_stream_map_alloc(ptr noundef nonnull %8, i64 noundef %1, i32 noundef %10) #15
  %12 = icmp eq ptr %11, null
  br i1 %12, label %31, label %13

13:                                               ; preds = %7
  %14 = and i64 %1, 2
  %.not = icmp eq i64 %14, 0
  %15 = zext i1 %.not to i32
  %16 = tail call fastcc i32 @ch_init_new_stream(ptr noundef nonnull %0, ptr noundef %11, i32 noundef %15, i32 noundef 1)
  %.not21 = icmp eq i32 %16, 0
  br i1 %.not21, label %30, label %17

17:                                               ; preds = %13
  %18 = load i64, ptr %3, align 8
  %19 = and i64 %18, 1073741824
  %.not22 = icmp eq i64 %19, 0
  br i1 %.not22, label %29, label %20

20:                                               ; preds = %17
  %21 = getelementptr inbounds nuw i8, ptr %0, i64 1456
  %22 = load i64, ptr %21, align 8, !tbaa !249
  %23 = tail call i32 @ossl_quic_stream_map_stop_sending_recv_part(ptr noundef nonnull %8, ptr noundef nonnull %11, i64 noundef %22) #15
  %24 = load i64, ptr %21, align 8, !tbaa !249
  %25 = tail call i32 @ossl_quic_stream_map_reset_stream_send_part(ptr noundef nonnull %8, ptr noundef nonnull %11, i64 noundef %24) #15
  %26 = getelementptr inbounds nuw i8, ptr %11, i64 256
  %27 = load i64, ptr %26, align 8
  %28 = or i64 %27, 137438953472
  store i64 %28, ptr %26, align 8
  tail call void @ossl_quic_stream_map_update_state(ptr noundef nonnull %8, ptr noundef nonnull %11) #15
  br label %31

29:                                               ; preds = %17
  tail call void @ossl_quic_stream_map_push_accept_queue(ptr noundef nonnull %8, ptr noundef nonnull %11) #15
  br label %31

30:                                               ; preds = %13
  tail call void @ossl_quic_stream_map_release(ptr noundef nonnull %8, ptr noundef nonnull %11) #15
  br label %31

31:                                               ; preds = %20, %29, %7, %2, %30
  %.0 = phi ptr [ null, %30 ], [ null, %2 ], [ null, %7 ], [ %11, %29 ], [ %11, %20 ]
  ret ptr %.0
}